target datalayout = "e-m:e-p270:32:32-p271:32:32-p272:64:64-i64:64-i128:128-f80:128-n8:16:32:64-S128"
target triple = "x86_64-pc-linux-gnu"

%struct.ieee802154_packet = type { i32, i32, i32, i32, i8, i8, i8, i8, i8, i8, i8, i8, i8, i8, i8, i8, i16, i16, i16, i64, i16, i64, i32, i32, i8, i32, i8, i64, %union.anon, i8, i8, ptr }
%union.anon = type { i64 }

@zbee_nwk_gp_frame_types = internal constant [3 x { i32, [4 x i8], ptr }] [{ i32, [4 x i8], ptr } { i32 0, [4 x i8] zeroinitializer, ptr @.str.265 }, { i32, [4 x i8], ptr } { i32 1, [4 x i8] zeroinitializer, ptr @.str.266 }, { i32, [4 x i8], ptr } zeroinitializer], align 16

; Function Attrs: null_pointer_is_valid sspstrong uwtable
define internal zeroext i1 @dissect_zbee_nwk_heur_gp(ptr noundef %0, ptr noundef %1, ptr noundef %2, ptr noundef %3) #1 {
  %5 = alloca i1, align 1
  %6 = alloca ptr, align 8
  %7 = alloca ptr, align 8
  %8 = alloca ptr, align 8
  %9 = alloca ptr, align 8
  %10 = alloca ptr, align 8
  %11 = alloca i8, align 1
  %12 = alloca i32, align 4
  store ptr %0, ptr %6, align 8
  store ptr %1, ptr %7, align 8
  store ptr %2, ptr %8, align 8
  store ptr %3, ptr %9, align 8
  call void @llvm.lifetime.start.p0(i64 8, ptr %10) #11
  %13 = load ptr, ptr %9, align 8
  store ptr %13, ptr %10, align 8
  call void @llvm.lifetime.start.p0(i64 1, ptr %11) #11
  %14 = load ptr, ptr %10, align 8
  %15 = icmp eq ptr %14, null
  br i1 %15, label %16, label %17

16:                                               ; preds = %4
  store i1 false, ptr %5, align 1
  store i32 1, ptr %12, align 4
  br label %67

17:                                               ; preds = %4
  %18 = load ptr, ptr %10, align 8
  %19 = getelementptr inbounds nuw %struct.ieee802154_packet, ptr %18, i32 0, i32 3
  %20 = load i32, ptr %19, align 4
  %21 = icmp eq i32 %20, 2
  br i1 %21, label %22, label %23

22:                                               ; preds = %17
  store i1 false, ptr %5, align 1
  store i32 1, ptr %12, align 4
  br label %67

23:                                               ; preds = %17
  %24 = load ptr, ptr %6, align 8
  %25 = call zeroext i8 @tvb_get_uint8(ptr noundef %24, i32 noundef 0)
  store i8 %25, ptr %11, align 1
  %26 = load i8, ptr %11, align 1
  %27 = zext i8 %26 to i32
  %28 = call i32 @zbee_get_bit_field(i32 noundef %27, i32 noundef 60)
  %29 = icmp ne i32 %28, 3
  br i1 %29, label %30, label %31

30:                                               ; preds = %23
  store i1 false, ptr %5, align 1
  store i32 1, ptr %12, align 4
  br label %67

31:                                               ; preds = %23
  %32 = load i8, ptr %11, align 1
  %33 = zext i8 %32 to i32
  %34 = call i32 @zbee_get_bit_field(i32 noundef %33, i32 noundef 3)
  %35 = call ptr @try_val_to_str(i32 noundef %34, ptr noundef @zbee_nwk_gp_frame_types)
  %36 = icmp ne ptr %35, null
  br i1 %36, label %38, label %37

37:                                               ; preds = %31
  store i1 false, ptr %5, align 1
  store i32 1, ptr %12, align 4
  br label %67

38:                                               ; preds = %31
  %39 = load ptr, ptr %10, align 8
  %40 = getelementptr inbounds nuw %struct.ieee802154_packet, ptr %39, i32 0, i32 2
  %41 = load i32, ptr %40, align 8
  %42 = icmp eq i32 %41, 2
  br i1 %42, label %43, label %55

43:                                               ; preds = %38
  %44 = load ptr, ptr %10, align 8
  %45 = getelementptr inbounds nuw %struct.ieee802154_packet, ptr %44, i32 0, i32 18
  %46 = load i16, ptr %45, align 8
  %47 = zext i16 %46 to i32
  %48 = icmp eq i32 %47, 65535
  br i1 %48, label %49, label %55

49:                                               ; preds = %43
  %50 = load ptr, ptr %6, align 8
  %51 = load ptr, ptr %7, align 8
  %52 = load ptr, ptr %8, align 8
  %53 = load ptr, ptr %9, align 8
  %54 = call i32 @dissect_zbee_nwk_gp(ptr noundef %50, ptr noundef %51, ptr noundef %52, ptr noundef %53)
  store i1 true, ptr %5, align 1
  store i32 1, ptr %12, align 4
  br label %67

55:                                               ; preds = %43, %38
  %56 = load ptr, ptr %10, align 8
  %57 = getelementptr inbounds nuw %struct.ieee802154_packet, ptr %56, i32 0, i32 2
  %58 = load i32, ptr %57, align 8
  %59 = icmp eq i32 %58, 3
  br i1 %59, label %60, label %66

60:                                               ; preds = %55
  %61 = load ptr, ptr %6, align 8
  %62 = load ptr, ptr %7, align 8
  %63 = load ptr, ptr %8, align 8
  %64 = load ptr, ptr %9, align 8
  %65 = call i32 @dissect_zbee_nwk_gp(ptr noundef %61, ptr noundef %62, ptr noundef %63, ptr noundef %64)
  store i1 true, ptr %5, align 1
  store i32 1, ptr %12, align 4
  br label %67

66:                                               ; preds = %55
  store i1 false, ptr %5, align 1
  store i32 1, ptr %12, align 4
  br label %67

67:                                               ; preds = %66, %60, %49, %37, %30, %22, %16
  call void @llvm.lifetime.end.p0(i64 1, ptr %11) #11
  call void @llvm.lifetime.end.p0(i64 8, ptr %10) #11
  %68 = load i1, ptr %5, align 1
  ret i1 %68
}