; Function Attrs: null_pointer_is_valid sspstrong uwtable
define internal noundef zeroext i1 @dissect_zbee_nwk_heur_gp(ptr noundef %0, ptr noundef %1, ptr noundef %2, ptr noundef captures(address_is_null) %3) #1 {
  %5 = icmp eq ptr %3, null
  br i1 %5, label %.thread, label %6

6:                                                ; preds = %4
  %7 = getelementptr inbounds nuw i8, ptr %3, i64 12
  %8 = load i32, ptr %7, align 4
  %9 = icmp eq i32 %8, 2
  br i1 %9, label %.thread, label %10

10:                                               ; preds = %6
  %11 = tail call zeroext i8 @tvb_get_uint8(ptr noundef %0, i32 noundef 0)
  %12 = zext i8 %11 to i32
  %13 = tail call i32 @zbee_get_bit_field(i32 noundef %12, i32 noundef 60)
  %.not = icmp eq i32 %13, 3
  br i1 %.not, label %14, label %.thread

14:                                               ; preds = %10
  %15 = tail call i32 @zbee_get_bit_field(i32 noundef %12, i32 noundef 3)
  %16 = tail call ptr @try_val_to_str(i32 noundef %15, ptr noundef nonnull @zbee_nwk_gp_frame_types)
  %.not18 = icmp eq ptr %16, null
  br i1 %.not18, label %.thread, label %17

17:                                               ; preds = %14
  %18 = getelementptr inbounds nuw i8, ptr %3, i64 8
  %19 = load i32, ptr %18, align 8
  switch i32 %19, label %.thread [
    i32 2, label %20
    i32 3, label %.thread.sink.split
  ]

20:                                               ; preds = %17
  %21 = getelementptr inbounds nuw i8, ptr %3, i64 32
  %22 = load i16, ptr %21, align 8
  %23 = icmp eq i16 %22, -1
  br i1 %23, label %.thread.sink.split, label %.thread

.thread.sink.split:                               ; preds = %17, %20
  %24 = tail call i32 @dissect_zbee_nwk_gp(ptr noundef %0, ptr noundef %1, ptr noundef %2, ptr noundef nonnull %3)
  br label %.thread

.thread:                                          ; preds = %.thread.sink.split, %17, %20, %14, %10, %6, %4
  %.0 = phi i1 [ false, %4 ], [ false, %6 ], [ false, %10 ], [ false, %14 ], [ false, %20 ], [ false, %17 ], [ true, %.thread.sink.split ]
  ret i1 %.0
}